target datalayout = "e-m:e-p270:32:32-p271:32:32-p272:64:64-i64:64-i128:128-f80:128-n8:16:32:64-S128"
target triple = "x86_64-pc-linux-gnu"

%"class.cv::Rect_" = type { i32, i32, i32, i32 }
%"class.cv::Size_" = type { i32, i32 }
%"class.cv::Mat" = type { i32, i32, i32, i32, ptr, ptr, ptr, ptr, ptr, ptr, %"struct.cv::MatSize", %"struct.cv::MatStep" }
%"struct.cv::MatSize" = type { ptr }
%"struct.cv::MatStep" = type { ptr, [2 x i64] }
%"class.cv::MatExpr" = type { ptr, i32, %"class.cv::Mat", %"class.cv::Mat", %"class.cv::Mat", double, double, %"class.cv::Scalar_" }
%"class.cv::Scalar_" = type { %"class.cv::Vec" }
%"class.cv::Vec" = type { %"class.cv::Matx" }
%"class.cv::Matx" = type { [4 x double] }
%"class.cv::_InputArray" = type { i32, ptr, %"class.cv::Size_" }

; Function Attrs: inlinehint mustprogress nounwind uwtable
define linkonce_odr hidden void @_ZN2cv11_InputArrayD2Ev(ptr noundef nonnull align 8 dereferenceable(24) %0) unnamed_addr #5 comdat align 2 {
  %2 = alloca ptr, align 8
  store ptr %0, ptr %2, align 8, !tbaa !59
  ret void
}

; Function Attrs: mustprogress uwtable
define { i64, i64 } @_ZN2cv6detail11PlaneWarper9buildMapsENS_5Size_IiEERKNS_11_InputArrayES6_RKNS_12_OutputArrayES9_(ptr noundef nonnull align 8 dereferenceable(168) %0, i64 %1, ptr noundef nonnull align 8 dereferenceable(24) %2, ptr noundef nonnull align 8 dereferenceable(24) %3, ptr noundef nonnull align 8 dereferenceable(24) %4, ptr noundef nonnull align 8 dereferenceable(24) %5) unnamed_addr #4 align 2 personality ptr @__gxx_personality_v0 {
  %7 = alloca %"class.cv::Rect_", align 4
  %8 = alloca %"class.cv::Size_", align 4
  %9 = alloca ptr, align 8
  %10 = alloca ptr, align 8
  %11 = alloca ptr, align 8
  %12 = alloca ptr, align 8
  %13 = alloca ptr, align 8
  %14 = alloca %"class.cv::Size_", align 4
  %15 = alloca %"class.cv::_InputArray", align 8
  %16 = alloca %"class.cv::MatExpr", align 8
  %17 = alloca ptr, align 8
  %18 = alloca i32, align 4
  store i64 %1, ptr %8, align 4
  store ptr %0, ptr %9, align 8, !tbaa !99
  store ptr %2, ptr %10, align 8, !tbaa !59
  store ptr %3, ptr %11, align 8, !tbaa !59
  store ptr %4, ptr %12, align 8, !tbaa !64
  store ptr %5, ptr %13, align 8, !tbaa !64
  %19 = load ptr, ptr %9, align 8
  call void @llvm.memcpy.p0.p0.i64(ptr align 4 %14, ptr align 4 %8, i64 8, i1 false), !tbaa.struct !66
  %20 = load ptr, ptr %10, align 8, !tbaa !59
  %21 = load ptr, ptr %11, align 8, !tbaa !59
  call void @llvm.lifetime.start.p0(i64 24, ptr %15) #3
  call void @llvm.lifetime.start.p0(i64 352, ptr %16) #3
  call void @_ZN2cv3Mat5zerosEiii(ptr dead_on_unwind writable sret(%"class.cv::MatExpr") align 8 %16, i32 noundef 3, i32 noundef 1, i32 noundef 5)
  invoke void @_ZN2cv11_InputArrayC1ERKNS_7MatExprE(ptr noundef nonnull align 8 dereferenceable(24) %15, ptr noundef nonnull align 8 dereferenceable(352) %16)
          to label %22 unwind label %36

22:                                               ; preds = %6
  %23 = load ptr, ptr %12, align 8, !tbaa !64
  %24 = load ptr, ptr %13, align 8, !tbaa !64
  %25 = load i64, ptr %14, align 4
  %26 = load ptr, ptr %19, align 8, !tbaa !12
  %27 = getelementptr inbounds ptr, ptr %26, i64 11
  %28 = load ptr, ptr %27, align 8
  %29 = invoke { i64, i64 } %28(ptr noundef nonnull align 8 dereferenceable(168) %19, i64 %25, ptr noundef nonnull align 8 dereferenceable(24) %20, ptr noundef nonnull align 8 dereferenceable(24) %21, ptr noundef nonnull align 8 dereferenceable(24) %15, ptr noundef nonnull align 8 dereferenceable(24) %23, ptr noundef nonnull align 8 dereferenceable(24) %24)
          to label %30 unwind label %40

30:                                               ; preds = %22
  %31 = getelementptr inbounds nuw { i64, i64 }, ptr %7, i32 0, i32 0
  %32 = extractvalue { i64, i64 } %29, 0
  store i64 %32, ptr %31, align 4
  %33 = getelementptr inbounds nuw { i64, i64 }, ptr %7, i32 0, i32 1
  %34 = extractvalue { i64, i64 } %29, 1
  store i64 %34, ptr %33, align 4
  call void @_ZN2cv11_InputArrayD2Ev(ptr noundef nonnull align 8 dereferenceable(24) %15) #3
  call void @_ZN2cv7MatExprD2Ev(ptr noundef nonnull align 8 dereferenceable(352) %16) #3
  call void @llvm.lifetime.end.p0(i64 352, ptr %16) #3
  call void @llvm.lifetime.end.p0(i64 24, ptr %15) #3
  %35 = load { i64, i64 }, ptr %7, align 4
  ret { i64, i64 } %35

36:                                               ; preds = %6
  %37 = landingpad { ptr, i32 }
          cleanup
  %38 = extractvalue { ptr, i32 } %37, 0
  store ptr %38, ptr %17, align 8
  %39 = extractvalue { ptr, i32 } %37, 1
  store i32 %39, ptr %18, align 4
  br label %44

40:                                               ; preds = %22
  %41 = landingpad { ptr, i32 }
          cleanup
  %42 = extractvalue { ptr, i32 } %41, 0
  store ptr %42, ptr %17, align 8
  %43 = extractvalue { ptr, i32 } %41, 1
  store i32 %43, ptr %18, align 4
  call void @_ZN2cv11_InputArrayD2Ev(ptr noundef nonnull align 8 dereferenceable(24) %15) #3
  br label %44

44:                                               ; preds = %40, %36
  call void @_ZN2cv7MatExprD2Ev(ptr noundef nonnull align 8 dereferenceable(352) %16) #3
  call void @llvm.lifetime.end.p0(i64 352, ptr %16) #3
  call void @llvm.lifetime.end.p0(i64 24, ptr %15) #3
  br label %45

45:                                               ; preds = %44
  %46 = load ptr, ptr %17, align 8
  %47 = load i32, ptr %18, align 4
  %48 = insertvalue { ptr, i32 } poison, ptr %46, 0
  %49 = insertvalue { ptr, i32 } %48, i32 %47, 1
  resume { ptr, i32 } %49
}