; Function Attrs: mustprogress uwtable
define { i64, i64 } @_ZN2cv6detail11PlaneWarper9buildMapsENS_5Size_IiEERKNS_11_InputArrayES6_RKNS_12_OutputArrayES9_(ptr noundef nonnull align 8 dereferenceable(168) %0, i64 %1, ptr noundef nonnull align 8 dereferenceable(24) %2, ptr noundef nonnull align 8 dereferenceable(24) %3, ptr noundef nonnull align 8 dereferenceable(24) %4, ptr noundef nonnull align 8 dereferenceable(24) %5) unnamed_addr #3 align 2 personality ptr @__gxx_personality_v0 {
  %7 = alloca %"class.cv::_InputArray", align 8
  %8 = alloca %"class.cv::MatExpr", align 8
  call void @llvm.lifetime.start.p0(i64 24, ptr nonnull %7) #22
  call void @llvm.lifetime.start.p0(i64 352, ptr nonnull %8) #22
  call void @_ZN2cv3Mat5zerosEiii(ptr dead_on_unwind nonnull writable sret(%"class.cv::MatExpr") align 8 %8, i32 noundef 3, i32 noundef 1, i32 noundef 5)
  invoke void @_ZN2cv11_InputArrayC1ERKNS_7MatExprE(ptr noundef nonnull align 8 dereferenceable(24) %7, ptr noundef nonnull align 8 dereferenceable(352) %8)
          to label %9 unwind label %18

9:                                                ; preds = %6
  %10 = load ptr, ptr %0, align 8, !tbaa !14
  %11 = getelementptr inbounds nuw i8, ptr %10, i64 88
  %12 = load ptr, ptr %11, align 8
  %13 = invoke { i64, i64 } %12(ptr noundef nonnull align 8 dereferenceable(168) %0, i64 %1, ptr noundef nonnull align 8 dereferenceable(24) %2, ptr noundef nonnull align 8 dereferenceable(24) %3, ptr noundef nonnull align 8 dereferenceable(24) %7, ptr noundef nonnull align 8 dereferenceable(24) %4, ptr noundef nonnull align 8 dereferenceable(24) %5)
          to label %14 unwind label %20

14:                                               ; preds = %9
  %15 = getelementptr inbounds nuw i8, ptr %8, i64 208
  call void @_ZN2cv3MatD1Ev(ptr noundef nonnull align 8 dereferenceable(96) %15) #22
  %16 = getelementptr inbounds nuw i8, ptr %8, i64 112
  call void @_ZN2cv3MatD1Ev(ptr noundef nonnull align 8 dereferenceable(96) %16) #22
  %17 = getelementptr inbounds nuw i8, ptr %8, i64 16
  call void @_ZN2cv3MatD1Ev(ptr noundef nonnull align 8 dereferenceable(96) %17) #22
  call void @llvm.lifetime.end.p0(i64 352, ptr nonnull %8) #22
  call void @llvm.lifetime.end.p0(i64 24, ptr nonnull %7) #22
  ret { i64, i64 } %13

18:                                               ; preds = %6
  %19 = landingpad { ptr, i32 }
          cleanup
  br label %22

20:                                               ; preds = %9
  %21 = landingpad { ptr, i32 }
          cleanup
  br label %22

22:                                               ; preds = %20, %18
  %.pn = phi { ptr, i32 } [ %21, %20 ], [ %19, %18 ]
  call void @_ZN2cv7MatExprD2Ev(ptr noundef nonnull align 8 dereferenceable(352) %8) #22
  call void @llvm.lifetime.end.p0(i64 352, ptr nonnull %8) #22
  call void @llvm.lifetime.end.p0(i64 24, ptr nonnull %7) #22
  resume { ptr, i32 } %.pn
}